target datalayout = "e-m:e-p270:32:32-p271:32:32-p272:64:64-i64:64-i128:128-f80:128-n8:16:32:64-S128"
target triple = "x86_64-pc-linux-gnu"

@_ZN19Abstract_VM_Version9_featuresE = external global i64, align 8

; Function Attrs: mustprogress nounwind uwtable
define linkonce_odr hidden noundef zeroext i1 @_ZN10VM_Version17supports_avx512vlEv() #1 comdat align 2 {
  %1 = load i64, ptr @_ZN19Abstract_VM_Version9_featuresE, align 8
  %2 = and i64 %1, 8589934592
  %3 = icmp ne i64 %2, 0
  ret i1 %3
}

; Function Attrs: mustprogress nounwind uwtable
define linkonce_odr hidden noundef zeroext i1 @_ZN10VM_Version13supports_f16cEv() #1 comdat align 2 {
  %1 = load i64, ptr @_ZN19Abstract_VM_Version9_featuresE, align 8
  %2 = and i64 %1, 9007199254740992
  %3 = icmp ne i64 %2, 0
  ret i1 %3
}

; Function Attrs: mustprogress nounwind uwtable
define linkonce_odr hidden noundef zeroext i1 @_ZN10VM_Version16supports_float16Ev() #1 comdat align 2 {
  %1 = call noundef zeroext i1 @_ZN10VM_Version13supports_f16cEv()
  br i1 %1, label %4, label %2

2:                                                ; preds = %0
  %3 = call noundef zeroext i1 @_ZN10VM_Version17supports_avx512vlEv()
  br label %4

4:                                                ; preds = %2, %0
  %5 = phi i1 [ true, %0 ], [ %3, %2 ]
  ret i1 %5
}

; Function Attrs: mustprogress nounwind uwtable
define hidden noundef zeroext i1 @_ZN10VM_Version22is_intrinsic_supportedE13vmIntrinsicID(i32 noundef %0) #1 align 2 {
  %2 = alloca i1, align 1
  %3 = alloca i32, align 4
  store i32 %0, ptr %3, align 4
  %4 = load i32, ptr %3, align 4
  switch i32 %4, label %9 [
    i32 68, label %5
    i32 67, label %5
  ]

5:                                                ; preds = %1, %1
  %6 = call noundef zeroext i1 @_ZN10VM_Version16supports_float16Ev()
  br i1 %6, label %8, label %7

7:                                                ; preds = %5
  store i1 false, ptr %2, align 1
  br label %11

8:                                                ; preds = %5
  br label %10

9:                                                ; preds = %1
  br label %10

10:                                               ; preds = %9, %8
  store i1 true, ptr %2, align 1
  br label %11

11:                                               ; preds = %10, %7
  %12 = load i1, ptr %2, align 1
  ret i1 %12
}