; Function Attrs: mustprogress nofree norecurse nosync nounwind willreturn memory(read, argmem: none, inaccessiblemem: none) uwtable
define hidden noundef zeroext i1 @_ZN10VM_Version22is_intrinsic_supportedE13vmIntrinsicID(i32 noundef %0) local_unnamed_addr #3 align 2 {
  %.off = add i32 %0, -67
  %switch = icmp ult i32 %.off, 2
  br i1 %switch, label %2, label %5

2:                                                ; preds = %1
  %3 = load i64, ptr @_ZN19Abstract_VM_Version9_featuresE, align 8
  %4 = and i64 %3, 9007207844675584
  %.not = icmp eq i64 %4, 0
  br i1 %.not, label %6, label %5

5:                                                ; preds = %1, %2
  br label %6

6:                                                ; preds = %2, %5
  %.0 = phi i1 [ true, %5 ], [ false, %2 ]
  ret i1 %.0
}